target datalayout = "e-m:e-p270:32:32-p271:32:32-p272:64:64-i64:64-i128:128-f80:128-n8:16:32:64-S128"
target triple = "x86_64-pc-linux-gnu"

; Function Attrs: nounwind uwtable
define hidden void @SDL_ConvertColorPrimaries(ptr noundef %0, ptr noundef %1, ptr noundef %2, ptr noundef %3) #0 {
  %5 = alloca ptr, align 8
  %6 = alloca ptr, align 8
  %7 = alloca ptr, align 8
  %8 = alloca ptr, align 8
  %9 = alloca [3 x float], align 4
  store ptr %0, ptr %5, align 8
  store ptr %1, ptr %6, align 8
  store ptr %2, ptr %7, align 8
  store ptr %3, ptr %8, align 8
  call void @llvm.lifetime.start.p0(i64 12, ptr %9) #7
  %10 = load ptr, ptr %5, align 8
  %11 = load float, ptr %10, align 4
  %12 = getelementptr inbounds [3 x float], ptr %9, i64 0, i64 0
  store float %11, ptr %12, align 4
  %13 = load ptr, ptr %6, align 8
  %14 = load float, ptr %13, align 4
  %15 = getelementptr inbounds [3 x float], ptr %9, i64 0, i64 1
  store float %14, ptr %15, align 4
  %16 = load ptr, ptr %7, align 8
  %17 = load float, ptr %16, align 4
  %18 = getelementptr inbounds [3 x float], ptr %9, i64 0, i64 2
  store float %17, ptr %18, align 4
  %19 = load ptr, ptr %8, align 8
  %20 = getelementptr inbounds float, ptr %19, i64 0
  %21 = load float, ptr %20, align 4
  %22 = getelementptr inbounds [3 x float], ptr %9, i64 0, i64 0
  %23 = load float, ptr %22, align 4
  %24 = load ptr, ptr %8, align 8
  %25 = getelementptr inbounds float, ptr %24, i64 1
  %26 = load float, ptr %25, align 4
  %27 = getelementptr inbounds [3 x float], ptr %9, i64 0, i64 1
  %28 = load float, ptr %27, align 4
  %29 = fmul float %26, %28
  %30 = call float @llvm.fmuladd.f32(float %21, float %23, float %29)
  %31 = load ptr, ptr %8, align 8
  %32 = getelementptr inbounds float, ptr %31, i64 2
  %33 = load float, ptr %32, align 4
  %34 = getelementptr inbounds [3 x float], ptr %9, i64 0, i64 2
  %35 = load float, ptr %34, align 4
  %36 = call float @llvm.fmuladd.f32(float %33, float %35, float %30)
  %37 = load ptr, ptr %5, align 8
  store float %36, ptr %37, align 4
  %38 = load ptr, ptr %8, align 8
  %39 = getelementptr inbounds float, ptr %38, i64 3
  %40 = load float, ptr %39, align 4
  %41 = getelementptr inbounds [3 x float], ptr %9, i64 0, i64 0
  %42 = load float, ptr %41, align 4
  %43 = load ptr, ptr %8, align 8
  %44 = getelementptr inbounds float, ptr %43, i64 4
  %45 = load float, ptr %44, align 4
  %46 = getelementptr inbounds [3 x float], ptr %9, i64 0, i64 1
  %47 = load float, ptr %46, align 4
  %48 = fmul float %45, %47
  %49 = call float @llvm.fmuladd.f32(float %40, float %42, float %48)
  %50 = load ptr, ptr %8, align 8
  %51 = getelementptr inbounds float, ptr %50, i64 5
  %52 = load float, ptr %51, align 4
  %53 = getelementptr inbounds [3 x float], ptr %9, i64 0, i64 2
  %54 = load float, ptr %53, align 4
  %55 = call float @llvm.fmuladd.f32(float %52, float %54, float %49)
  %56 = load ptr, ptr %6, align 8
  store float %55, ptr %56, align 4
  %57 = load ptr, ptr %8, align 8
  %58 = getelementptr inbounds float, ptr %57, i64 6
  %59 = load float, ptr %58, align 4
  %60 = getelementptr inbounds [3 x float], ptr %9, i64 0, i64 0
  %61 = load float, ptr %60, align 4
  %62 = load ptr, ptr %8, align 8
  %63 = getelementptr inbounds float, ptr %62, i64 7
  %64 = load float, ptr %63, align 4
  %65 = getelementptr inbounds [3 x float], ptr %9, i64 0, i64 1
  %66 = load float, ptr %65, align 4
  %67 = fmul float %64, %66
  %68 = call float @llvm.fmuladd.f32(float %59, float %61, float %67)
  %69 = load ptr, ptr %8, align 8
  %70 = getelementptr inbounds float, ptr %69, i64 8
  %71 = load float, ptr %70, align 4
  %72 = getelementptr inbounds [3 x float], ptr %9, i64 0, i64 2
  %73 = load float, ptr %72, align 4
  %74 = call float @llvm.fmuladd.f32(float %71, float %73, float %68)
  %75 = load ptr, ptr %7, align 8
  store float %74, ptr %75, align 4
  call void @llvm.lifetime.end.p0(i64 12, ptr %9) #7
  ret void
}