; Function Attrs: mustprogress nofree norecurse nosync nounwind willreturn memory(argmem: readwrite) uwtable
define hidden void @SDL_ConvertColorPrimaries(ptr noundef captures(none) %0, ptr noundef captures(none) %1, ptr noundef captures(none) %2, ptr noundef readonly captures(none) %3) local_unnamed_addr #4 {
  %5 = load float, ptr %0, align 4
  %6 = load float, ptr %1, align 4
  %7 = load float, ptr %2, align 4
  %8 = load float, ptr %3, align 4
  %9 = getelementptr inbounds nuw i8, ptr %3, i64 4
  %10 = load float, ptr %9, align 4
  %11 = fmul float %6, %10
  %12 = tail call float @llvm.fmuladd.f32(float %8, float %5, float %11)
  %13 = getelementptr inbounds nuw i8, ptr %3, i64 8
  %14 = load float, ptr %13, align 4
  %15 = tail call float @llvm.fmuladd.f32(float %14, float %7, float %12)
  store float %15, ptr %0, align 4
  %16 = getelementptr inbounds nuw i8, ptr %3, i64 12
  %17 = load float, ptr %16, align 4
  %18 = getelementptr inbounds nuw i8, ptr %3, i64 16
  %19 = load float, ptr %18, align 4
  %20 = fmul float %6, %19
  %21 = tail call float @llvm.fmuladd.f32(float %17, float %5, float %20)
  %22 = getelementptr inbounds nuw i8, ptr %3, i64 20
  %23 = load float, ptr %22, align 4
  %24 = tail call float @llvm.fmuladd.f32(float %23, float %7, float %21)
  store float %24, ptr %1, align 4
  %25 = getelementptr inbounds nuw i8, ptr %3, i64 24
  %26 = load float, ptr %25, align 4
  %27 = getelementptr inbounds nuw i8, ptr %3, i64 28
  %28 = load float, ptr %27, align 4
  %29 = fmul float %6, %28
  %30 = tail call float @llvm.fmuladd.f32(float %26, float %5, float %29)
  %31 = getelementptr inbounds nuw i8, ptr %3, i64 32
  %32 = load float, ptr %31, align 4
  %33 = tail call float @llvm.fmuladd.f32(float %32, float %7, float %30)
  store float %33, ptr %2, align 4
  ret void
}